target datalayout = "e-m:e-p270:32:32-p271:32:32-p272:64:64-i64:64-i128:128-f80:128-n8:16:32:64-S128"
target triple = "x86_64-pc-linux-gnu"

%struct.evp_pkey_ctx_st = type { i32, ptr, ptr, ptr, ptr, %union.anon, %struct.anon.4, ptr, ptr, ptr, i32, i32, ptr, ptr, ptr, ptr, ptr, i8, ptr }
%union.anon = type { %struct.anon.0 }
%struct.anon.0 = type { ptr, ptr }
%struct.anon.4 = type { ptr, ptr, i64, i8 }

@.str = private unnamed_addr constant [34 x i8] c"../openssl/crypto/evp/pmeth_lib.c\00", align 1
@__func__.EVP_PKEY_CTX_ctrl = private unnamed_addr constant [18 x i8] c"EVP_PKEY_CTX_ctrl\00", align 1

; Function Attrs: nounwind uwtable
define i32 @EVP_PKEY_CTX_ctrl(ptr noundef %0, i32 noundef %1, i32 noundef %2, i32 noundef %3, i32 noundef %4, ptr noundef %5) #0 {
  %7 = alloca i32, align 4
  %8 = alloca ptr, align 8
  %9 = alloca i32, align 4
  %10 = alloca i32, align 4
  %11 = alloca i32, align 4
  %12 = alloca i32, align 4
  %13 = alloca ptr, align 8
  %14 = alloca i32, align 4
  %15 = alloca i32, align 4
  store ptr %0, ptr %8, align 8, !tbaa !18
  store i32 %1, ptr %9, align 4, !tbaa !3
  store i32 %2, ptr %10, align 4, !tbaa !3
  store i32 %3, ptr %11, align 4, !tbaa !3
  store i32 %4, ptr %12, align 4, !tbaa !3
  store ptr %5, ptr %13, align 8, !tbaa !12
  call void @llvm.lifetime.start.p0(i64 4, ptr %14) #8
  store i32 0, ptr %14, align 4, !tbaa !3
  %16 = load ptr, ptr %8, align 8, !tbaa !18
  %17 = icmp eq ptr %16, null
  br i1 %17, label %18, label %19

18:                                               ; preds = %6
  call void @ERR_new()
  call void @ERR_set_debug(ptr noundef @.str, i32 noundef 1340, ptr noundef @__func__.EVP_PKEY_CTX_ctrl)
  call void (i32, i32, ptr, ...) @ERR_set_error(i32 noundef 6, i32 noundef 147, ptr noundef null)
  store i32 -2, ptr %7, align 4
  store i32 1, ptr %15, align 4
  br label %53

19:                                               ; preds = %6
  %20 = call i32 @ERR_set_mark()
  %21 = load ptr, ptr %8, align 8, !tbaa !18
  %22 = load i32, ptr %9, align 4, !tbaa !3
  %23 = load i32, ptr %10, align 4, !tbaa !3
  %24 = load i32, ptr %11, align 4, !tbaa !3
  %25 = load ptr, ptr %13, align 8, !tbaa !12
  %26 = load i32, ptr %12, align 4, !tbaa !3
  %27 = sext i32 %26 to i64
  %28 = call i32 @evp_pkey_ctx_store_cached_data(ptr noundef %21, i32 noundef %22, i32 noundef %23, i32 noundef %24, ptr noundef null, ptr noundef %25, i64 noundef %27)
  store i32 %28, ptr %14, align 4, !tbaa !3
  %29 = load i32, ptr %14, align 4, !tbaa !3
  %30 = icmp eq i32 %29, -2
  br i1 %30, label %31, label %33

31:                                               ; preds = %19
  %32 = call i32 @ERR_pop_to_mark()
  br label %45

33:                                               ; preds = %19
  %34 = call i32 @ERR_clear_last_mark()
  %35 = load i32, ptr %14, align 4, !tbaa !3
  %36 = icmp slt i32 %35, 1
  br i1 %36, label %42, label %37

37:                                               ; preds = %33
  %38 = load ptr, ptr %8, align 8, !tbaa !18
  %39 = getelementptr inbounds nuw %struct.evp_pkey_ctx_st, ptr %38, i32 0, i32 0
  %40 = load i32, ptr %39, align 8, !tbaa !20
  %41 = icmp eq i32 %40, 0
  br i1 %41, label %42, label %44

42:                                               ; preds = %37, %33
  %43 = load i32, ptr %14, align 4, !tbaa !3
  store i32 %43, ptr %7, align 4
  store i32 1, ptr %15, align 4
  br label %53

44:                                               ; preds = %37
  br label %45

45:                                               ; preds = %44, %31
  %46 = load ptr, ptr %8, align 8, !tbaa !18
  %47 = load i32, ptr %9, align 4, !tbaa !3
  %48 = load i32, ptr %10, align 4, !tbaa !3
  %49 = load i32, ptr %11, align 4, !tbaa !3
  %50 = load i32, ptr %12, align 4, !tbaa !3
  %51 = load ptr, ptr %13, align 8, !tbaa !12
  %52 = call i32 @evp_pkey_ctx_ctrl_int(ptr noundef %46, i32 noundef %47, i32 noundef %48, i32 noundef %49, i32 noundef %50, ptr noundef %51)
  store i32 %52, ptr %7, align 4
  store i32 1, ptr %15, align 4
  br label %53

53:                                               ; preds = %45, %42, %18
  call void @llvm.lifetime.end.p0(i64 4, ptr %14) #8
  %54 = load i32, ptr %7, align 4
  ret i32 %54
}