; Function Attrs: nounwind uwtable
define i32 @EVP_PKEY_CTX_ctrl(ptr noundef %0, i32 noundef %1, i32 noundef %2, i32 noundef %3, i32 noundef %4, ptr noundef %5) local_unnamed_addr #0 {
  %7 = icmp eq ptr %0, null
  br i1 %7, label %8, label %9

8:                                                ; preds = %6
  tail call void @ERR_new() #10
  tail call void @ERR_set_debug(ptr noundef nonnull @.str, i32 noundef 1340, ptr noundef nonnull @__func__.EVP_PKEY_CTX_ctrl) #10
  tail call void (i32, i32, ptr, ...) @ERR_set_error(i32 noundef 6, i32 noundef 147, ptr noundef null) #10
  br label %24

9:                                                ; preds = %6
  %10 = tail call i32 @ERR_set_mark() #10
  %11 = sext i32 %4 to i64
  %12 = tail call fastcc i32 @evp_pkey_ctx_store_cached_data(ptr noundef nonnull %0, i32 noundef %1, i32 noundef %2, i32 noundef %3, ptr noundef null, ptr noundef %5, i64 noundef %11)
  %13 = icmp eq i32 %12, -2
  br i1 %13, label %14, label %16

14:                                               ; preds = %9
  %15 = tail call i32 @ERR_pop_to_mark() #10
  br label %22

16:                                               ; preds = %9
  %17 = tail call i32 @ERR_clear_last_mark() #10
  %18 = icmp slt i32 %12, 1
  br i1 %18, label %24, label %19

19:                                               ; preds = %16
  %20 = load i32, ptr %0, align 8, !tbaa !15
  %21 = icmp eq i32 %20, 0
  br i1 %21, label %24, label %22

22:                                               ; preds = %19, %14
  %23 = tail call fastcc i32 @evp_pkey_ctx_ctrl_int(ptr noundef nonnull %0, i32 noundef %1, i32 noundef %2, i32 noundef %3, i32 noundef %4, ptr noundef %5)
  br label %24

24:                                               ; preds = %16, %19, %22, %8
  %.0 = phi i32 [ -2, %8 ], [ %23, %22 ], [ 1, %19 ], [ %12, %16 ]
  ret i32 %.0
}